target datalayout = "e-m:e-p270:32:32-p271:32:32-p272:64:64-i64:64-i128:128-f80:128-n8:16:32:64-S128"
target triple = "x86_64-pc-linux-gnu"

%struct.strbuf = type { i64, i64, ptr }

@.str = private unnamed_addr constant [36 x i8] c"you want to use way too much memory\00", align 1
@sane_ctype = external constant [256 x i8], align 16
@.str.11 = private unnamed_addr constant [6 x i8] c"-.:[]\00", align 1
@.str.12 = private unnamed_addr constant [29 x i8] c" <>\22%{}|\\^`:?#[]@!$&'()*+,;=\00", align 1
@.str.13 = private unnamed_addr constant [7 x i8] c"%%%02X\00", align 1
@.str.27 = private unnamed_addr constant [27 x i8] c"size_t overflow: %lu * %lu\00", align 1

; Function Attrs: inlinehint nounwind uwtable
define internal i64 @st_mult(i64 noundef %0, i64 noundef %1) #1 {
  %3 = alloca i64, align 8
  %4 = alloca i64, align 8
  store i64 %0, ptr %3, align 8, !tbaa !12
  store i64 %1, ptr %4, align 8, !tbaa !12
  %5 = load i64, ptr %3, align 8, !tbaa !12
  %6 = icmp ne i64 %5, 0
  br i1 %6, label %7, label %15

7:                                                ; preds = %2
  %8 = load i64, ptr %4, align 8, !tbaa !12
  %9 = load i64, ptr %3, align 8, !tbaa !12
  %10 = udiv i64 -1, %9
  %11 = icmp ugt i64 %8, %10
  br i1 %11, label %12, label %15

12:                                               ; preds = %7
  %13 = load i64, ptr %3, align 8, !tbaa !12
  %14 = load i64, ptr %4, align 8, !tbaa !12
  call void (ptr, ...) @die(ptr noundef @.str.27, i64 noundef %13, i64 noundef %14) #12
  unreachable

15:                                               ; preds = %7, %2
  %16 = load i64, ptr %3, align 8, !tbaa !12
  %17 = load i64, ptr %4, align 8, !tbaa !12
  %18 = mul i64 %16, %17
  ret i64 %18
}

; Function Attrs: nounwind uwtable
define dso_local void @strbuf_grow(ptr noundef %0, i64 noundef %1) #0 {
  %3 = alloca ptr, align 8
  %4 = alloca i64, align 8
  %5 = alloca i32, align 4
  store ptr %0, ptr %3, align 8, !tbaa !18
  store i64 %1, ptr %4, align 8, !tbaa !12
  call void @llvm.lifetime.start.p0(i64 4, ptr %5) #11
  %6 = load ptr, ptr %3, align 8, !tbaa !18
  %7 = getelementptr inbounds nuw %struct.strbuf, ptr %6, i32 0, i32 0
  %8 = load i64, ptr %7, align 8, !tbaa !20
  %9 = icmp ne i64 %8, 0
  %10 = xor i1 %9, true
  %11 = zext i1 %10 to i32
  store i32 %11, ptr %5, align 4, !tbaa !10
  %12 = load i64, ptr %4, align 8, !tbaa !12
  %13 = sub i64 -1, %12
  %14 = icmp ugt i64 1, %13
  br i1 %14, label %23, label %15

15:                                               ; preds = %2
  %16 = load i64, ptr %4, align 8, !tbaa !12
  %17 = add i64 %16, 1
  %18 = load ptr, ptr %3, align 8, !tbaa !18
  %19 = getelementptr inbounds nuw %struct.strbuf, ptr %18, i32 0, i32 1
  %20 = load i64, ptr %19, align 8, !tbaa !22
  %21 = sub i64 -1, %20
  %22 = icmp ugt i64 %17, %21
  br i1 %22, label %23, label %24

23:                                               ; preds = %15, %2
  call void (ptr, ...) @die(ptr noundef @.str) #12
  unreachable

24:                                               ; preds = %15
  %25 = load i32, ptr %5, align 4, !tbaa !10
  %26 = icmp ne i32 %25, 0
  br i1 %26, label %27, label %30

27:                                               ; preds = %24
  %28 = load ptr, ptr %3, align 8, !tbaa !18
  %29 = getelementptr inbounds nuw %struct.strbuf, ptr %28, i32 0, i32 2
  store ptr null, ptr %29, align 8, !tbaa !23
  br label %30

30:                                               ; preds = %27, %24
  br label %31

31:                                               ; preds = %30
  %32 = load ptr, ptr %3, align 8, !tbaa !18
  %33 = getelementptr inbounds nuw %struct.strbuf, ptr %32, i32 0, i32 1
  %34 = load i64, ptr %33, align 8, !tbaa !22
  %35 = load i64, ptr %4, align 8, !tbaa !12
  %36 = add i64 %34, %35
  %37 = add i64 %36, 1
  %38 = load ptr, ptr %3, align 8, !tbaa !18
  %39 = getelementptr inbounds nuw %struct.strbuf, ptr %38, i32 0, i32 0
  %40 = load i64, ptr %39, align 8, !tbaa !20
  %41 = icmp ugt i64 %37, %40
  br i1 %41, label %42, label %85

42:                                               ; preds = %31
  %43 = load ptr, ptr %3, align 8, !tbaa !18
  %44 = getelementptr inbounds nuw %struct.strbuf, ptr %43, i32 0, i32 0
  %45 = load i64, ptr %44, align 8, !tbaa !20
  %46 = add i64 %45, 16
  %47 = mul i64 %46, 3
  %48 = udiv i64 %47, 2
  %49 = load ptr, ptr %3, align 8, !tbaa !18
  %50 = getelementptr inbounds nuw %struct.strbuf, ptr %49, i32 0, i32 1
  %51 = load i64, ptr %50, align 8, !tbaa !22
  %52 = load i64, ptr %4, align 8, !tbaa !12
  %53 = add i64 %51, %52
  %54 = add i64 %53, 1
  %55 = icmp ult i64 %48, %54
  br i1 %55, label %56, label %65

56:                                               ; preds = %42
  %57 = load ptr, ptr %3, align 8, !tbaa !18
  %58 = getelementptr inbounds nuw %struct.strbuf, ptr %57, i32 0, i32 1
  %59 = load i64, ptr %58, align 8, !tbaa !22
  %60 = load i64, ptr %4, align 8, !tbaa !12
  %61 = add i64 %59, %60
  %62 = add i64 %61, 1
  %63 = load ptr, ptr %3, align 8, !tbaa !18
  %64 = getelementptr inbounds nuw %struct.strbuf, ptr %63, i32 0, i32 0
  store i64 %62, ptr %64, align 8, !tbaa !20
  br label %74

65:                                               ; preds = %42
  %66 = load ptr, ptr %3, align 8, !tbaa !18
  %67 = getelementptr inbounds nuw %struct.strbuf, ptr %66, i32 0, i32 0
  %68 = load i64, ptr %67, align 8, !tbaa !20
  %69 = add i64 %68, 16
  %70 = mul i64 %69, 3
  %71 = udiv i64 %70, 2
  %72 = load ptr, ptr %3, align 8, !tbaa !18
  %73 = getelementptr inbounds nuw %struct.strbuf, ptr %72, i32 0, i32 0
  store i64 %71, ptr %73, align 8, !tbaa !20
  br label %74

74:                                               ; preds = %65, %56
  %75 = load ptr, ptr %3, align 8, !tbaa !18
  %76 = getelementptr inbounds nuw %struct.strbuf, ptr %75, i32 0, i32 2
  %77 = load ptr, ptr %76, align 8, !tbaa !23
  %78 = load ptr, ptr %3, align 8, !tbaa !18
  %79 = getelementptr inbounds nuw %struct.strbuf, ptr %78, i32 0, i32 0
  %80 = load i64, ptr %79, align 8, !tbaa !20
  %81 = call i64 @st_mult(i64 noundef 1, i64 noundef %80)
  %82 = call ptr @xrealloc(ptr noundef %77, i64 noundef %81)
  %83 = load ptr, ptr %3, align 8, !tbaa !18
  %84 = getelementptr inbounds nuw %struct.strbuf, ptr %83, i32 0, i32 2
  store ptr %82, ptr %84, align 8, !tbaa !23
  br label %85

85:                                               ; preds = %74, %31
  br label %86

86:                                               ; preds = %85
  br label %87

87:                                               ; preds = %86
  %88 = load i32, ptr %5, align 4, !tbaa !10
  %89 = icmp ne i32 %88, 0
  br i1 %89, label %90, label %95

90:                                               ; preds = %87
  %91 = load ptr, ptr %3, align 8, !tbaa !18
  %92 = getelementptr inbounds nuw %struct.strbuf, ptr %91, i32 0, i32 2
  %93 = load ptr, ptr %92, align 8, !tbaa !23
  %94 = getelementptr inbounds i8, ptr %93, i64 0
  store i8 0, ptr %94, align 1, !tbaa !9
  br label %95

95:                                               ; preds = %90, %87
  call void @llvm.lifetime.end.p0(i64 4, ptr %5) #11
  ret void
}

; Function Attrs: inlinehint nounwind uwtable
define internal i64 @strbuf_avail(ptr noundef %0) #1 {
  %2 = alloca ptr, align 8
  store ptr %0, ptr %2, align 8, !tbaa !18
  %3 = load ptr, ptr %2, align 8, !tbaa !18
  %4 = getelementptr inbounds nuw %struct.strbuf, ptr %3, i32 0, i32 0
  %5 = load i64, ptr %4, align 8, !tbaa !20
  %6 = icmp ne i64 %5, 0
  br i1 %6, label %7, label %16

7:                                                ; preds = %1
  %8 = load ptr, ptr %2, align 8, !tbaa !18
  %9 = getelementptr inbounds nuw %struct.strbuf, ptr %8, i32 0, i32 0
  %10 = load i64, ptr %9, align 8, !tbaa !20
  %11 = load ptr, ptr %2, align 8, !tbaa !18
  %12 = getelementptr inbounds nuw %struct.strbuf, ptr %11, i32 0, i32 1
  %13 = load i64, ptr %12, align 8, !tbaa !22
  %14 = sub i64 %10, %13
  %15 = sub i64 %14, 1
  br label %17

16:                                               ; preds = %1
  br label %17

17:                                               ; preds = %16, %7
  %18 = phi i64 [ %15, %7 ], [ 0, %16 ]
  ret i64 %18
}

; Function Attrs: inlinehint nounwind uwtable
define internal void @strbuf_addch(ptr noundef %0, i32 noundef %1) #1 {
  %3 = alloca ptr, align 8
  %4 = alloca i32, align 4
  store ptr %0, ptr %3, align 8, !tbaa !18
  store i32 %1, ptr %4, align 4, !tbaa !10
  %5 = load ptr, ptr %3, align 8, !tbaa !18
  %6 = call i64 @strbuf_avail(ptr noundef %5)
  %7 = icmp ne i64 %6, 0
  br i1 %7, label %10, label %8

8:                                                ; preds = %2
  %9 = load ptr, ptr %3, align 8, !tbaa !18
  call void @strbuf_grow(ptr noundef %9, i64 noundef 1)
  br label %10

10:                                               ; preds = %8, %2
  %11 = load i32, ptr %4, align 4, !tbaa !10
  %12 = trunc i32 %11 to i8
  %13 = load ptr, ptr %3, align 8, !tbaa !18
  %14 = getelementptr inbounds nuw %struct.strbuf, ptr %13, i32 0, i32 2
  %15 = load ptr, ptr %14, align 8, !tbaa !23
  %16 = load ptr, ptr %3, align 8, !tbaa !18
  %17 = getelementptr inbounds nuw %struct.strbuf, ptr %16, i32 0, i32 1
  %18 = load i64, ptr %17, align 8, !tbaa !22
  %19 = add i64 %18, 1
  store i64 %19, ptr %17, align 8, !tbaa !22
  %20 = getelementptr inbounds nuw i8, ptr %15, i64 %18
  store i8 %12, ptr %20, align 1, !tbaa !9
  %21 = load ptr, ptr %3, align 8, !tbaa !18
  %22 = getelementptr inbounds nuw %struct.strbuf, ptr %21, i32 0, i32 2
  %23 = load ptr, ptr %22, align 8, !tbaa !23
  %24 = load ptr, ptr %3, align 8, !tbaa !18
  %25 = getelementptr inbounds nuw %struct.strbuf, ptr %24, i32 0, i32 1
  %26 = load i64, ptr %25, align 8, !tbaa !22
  %27 = getelementptr inbounds nuw i8, ptr %23, i64 %26
  store i8 0, ptr %27, align 1, !tbaa !9
  ret void
}

; Function Attrs: nounwind uwtable
define dso_local void @strbuf_add_percentencode(ptr noundef %0, ptr noundef %1, i32 noundef %2) #0 {
  %4 = alloca ptr, align 8
  %5 = alloca ptr, align 8
  %6 = alloca i32, align 4
  %7 = alloca i64, align 8
  %8 = alloca i64, align 8
  %9 = alloca i8, align 1
  store ptr %0, ptr %4, align 8, !tbaa !18
  store ptr %1, ptr %5, align 8, !tbaa !4
  store i32 %2, ptr %6, align 4, !tbaa !10
  call void @llvm.lifetime.start.p0(i64 8, ptr %7) #11
  call void @llvm.lifetime.start.p0(i64 8, ptr %8) #11
  %10 = load ptr, ptr %5, align 8, !tbaa !4
  %11 = call i64 @strlen(ptr noundef %10) #13
  store i64 %11, ptr %8, align 8, !tbaa !12
  store i64 0, ptr %7, align 8, !tbaa !12
  br label %12

12:                                               ; preds = %67, %3
  %13 = load i64, ptr %7, align 8, !tbaa !12
  %14 = load i64, ptr %8, align 8, !tbaa !12
  %15 = icmp ult i64 %13, %14
  br i1 %15, label %16, label %70

16:                                               ; preds = %12
  call void @llvm.lifetime.start.p0(i64 1, ptr %9) #11
  %17 = load ptr, ptr %5, align 8, !tbaa !4
  %18 = load i64, ptr %7, align 8, !tbaa !12
  %19 = getelementptr inbounds nuw i8, ptr %17, i64 %18
  %20 = load i8, ptr %19, align 1, !tbaa !9
  store i8 %20, ptr %9, align 1, !tbaa !9
  %21 = load i8, ptr %9, align 1, !tbaa !9
  %22 = zext i8 %21 to i32
  %23 = icmp sle i32 %22, 31
  br i1 %23, label %58, label %24

24:                                               ; preds = %16
  %25 = load i8, ptr %9, align 1, !tbaa !9
  %26 = zext i8 %25 to i32
  %27 = icmp sge i32 %26, 127
  br i1 %27, label %58, label %28

28:                                               ; preds = %24
  %29 = load i8, ptr %9, align 1, !tbaa !9
  %30 = zext i8 %29 to i32
  %31 = icmp eq i32 %30, 47
  br i1 %31, label %32, label %36

32:                                               ; preds = %28
  %33 = load i32, ptr %6, align 4, !tbaa !10
  %34 = and i32 %33, 1
  %35 = icmp ne i32 %34, 0
  br i1 %35, label %58, label %36

36:                                               ; preds = %32, %28
  %37 = load i32, ptr %6, align 4, !tbaa !10
  %38 = and i32 %37, 2
  %39 = icmp ne i32 %38, 0
  br i1 %39, label %40, label %53

40:                                               ; preds = %36
  %41 = load i8, ptr %9, align 1, !tbaa !9
  %42 = zext i8 %41 to i64
  %43 = getelementptr inbounds nuw [256 x i8], ptr @sane_ctype, i64 0, i64 %42
  %44 = load i8, ptr %43, align 1, !tbaa !9
  %45 = zext i8 %44 to i32
  %46 = and i32 %45, 6
  %47 = icmp ne i32 %46, 0
  br i1 %47, label %62, label %48

48:                                               ; preds = %40
  %49 = load i8, ptr %9, align 1, !tbaa !9
  %50 = zext i8 %49 to i32
  %51 = call ptr @strchr(ptr noundef @.str.11, i32 noundef %50) #13
  %52 = icmp ne ptr %51, null
  br i1 %52, label %62, label %58

53:                                               ; preds = %36
  %54 = load i8, ptr %9, align 1, !tbaa !9
  %55 = zext i8 %54 to i32
  %56 = call ptr @strchr(ptr noundef @.str.12, i32 noundef %55) #13
  %57 = icmp ne ptr %56, null
  br i1 %57, label %58, label %62

58:                                               ; preds = %53, %48, %32, %24, %16
  %59 = load ptr, ptr %4, align 8, !tbaa !18
  %60 = load i8, ptr %9, align 1, !tbaa !9
  %61 = zext i8 %60 to i32
  call void (ptr, ptr, ...) @strbuf_addf(ptr noundef %59, ptr noundef @.str.13, i32 noundef %61)
  br label %66

62:                                               ; preds = %53, %48, %40
  %63 = load ptr, ptr %4, align 8, !tbaa !18
  %64 = load i8, ptr %9, align 1, !tbaa !9
  %65 = zext i8 %64 to i32
  call void @strbuf_addch(ptr noundef %63, i32 noundef %65)
  br label %66

66:                                               ; preds = %62, %58
  call void @llvm.lifetime.end.p0(i64 1, ptr %9) #11
  br label %67

67:                                               ; preds = %66
  %68 = load i64, ptr %7, align 8, !tbaa !12
  %69 = add i64 %68, 1
  store i64 %69, ptr %7, align 8, !tbaa !12
  br label %12, !llvm.loop !51

70:                                               ; preds = %12
  call void @llvm.lifetime.end.p0(i64 8, ptr %8) #11
  call void @llvm.lifetime.end.p0(i64 8, ptr %7) #11
  ret void
}