; Function Attrs: nounwind uwtable
define dso_local void @strbuf_add_percentencode(ptr noundef captures(none) %0, ptr noundef readonly captures(none) %1, i32 noundef %2) local_unnamed_addr #3 {
  %4 = tail call i64 @strlen(ptr noundef nonnull dereferenceable(1) %1) #26
  %.not28 = icmp eq i64 %4, 0
  br i1 %.not28, label %._crit_edge, label %.lr.ph

.lr.ph:                                           ; preds = %3
  %5 = and i32 %2, 1
  %.not = icmp eq i32 %5, 0
  %6 = and i32 %2, 2
  %.not20 = icmp eq i32 %6, 0
  %7 = getelementptr inbounds nuw i8, ptr %0, i64 8
  %8 = getelementptr inbounds nuw i8, ptr %0, i64 16
  br label %9

9:                                                ; preds = %.lr.ph, %47
  %.026 = phi i64 [ 0, %.lr.ph ], [ %48, %47 ]
  %10 = getelementptr inbounds nuw i8, ptr %1, i64 %.026
  %11 = load i8, ptr %10, align 1, !tbaa !4
  %12 = zext i8 %11 to i32
  %13 = add i8 %11, -32
  %or.cond = icmp ult i8 %13, 95
  %14 = icmp ne i8 %11, 47
  %or.cond25 = or i1 %.not, %14
  %or.cond27 = and i1 %or.cond, %or.cond25
  br i1 %or.cond27, label %15, label %23

15:                                               ; preds = %9
  br i1 %.not20, label %22, label %16

16:                                               ; preds = %15
  %17 = zext nneg i8 %11 to i64
  %18 = getelementptr inbounds nuw [256 x i8], ptr @sane_ctype, i64 0, i64 %17
  %19 = load i8, ptr %18, align 1, !tbaa !4
  %20 = and i8 %19, 6
  %.not22 = icmp eq i8 %20, 0
  br i1 %.not22, label %21, label %24

21:                                               ; preds = %16
  %memchr23 = tail call ptr @memchr(ptr nonnull dereferenceable(1) @.str.11, i32 %12, i64 6)
  %.not24 = icmp eq ptr %memchr23, null
  br i1 %.not24, label %23, label %24

22:                                               ; preds = %15
  %memchr = tail call ptr @memchr(ptr nonnull dereferenceable(1) @.str.12, i32 %12, i64 29)
  %.not21 = icmp eq ptr %memchr, null
  br i1 %.not21, label %24, label %23

23:                                               ; preds = %22, %21, %9
  tail call void (ptr, ptr, ...) @strbuf_addf(ptr noundef %0, ptr noundef nonnull @.str.13, i32 noundef %12)
  br label %47

24:                                               ; preds = %22, %21, %16
  %25 = load i64, ptr %0, align 8, !tbaa !15
  %.not.i.i = icmp eq i64 %25, 0
  %26 = load i64, ptr %7, align 8, !tbaa !16
  br i1 %.not.i.i, label %strbuf_avail.exit.thread.i, label %strbuf_avail.exit.i

strbuf_avail.exit.i:                              ; preds = %24
  %.neg.i = add i64 %26, 1
  %.not.i = icmp eq i64 %25, %.neg.i
  br i1 %.not.i, label %.thread.i, label %strbuf_addch.exit

strbuf_avail.exit.thread.i:                       ; preds = %24
  %27 = icmp ugt i64 %26, -3
  br i1 %27, label %29, label %30

.thread.i:                                        ; preds = %strbuf_avail.exit.i
  %28 = icmp ugt i64 %26, -3
  br i1 %28, label %29, label %.thread8.i

29:                                               ; preds = %.thread.i, %strbuf_avail.exit.thread.i
  tail call void (ptr, ...) @die(ptr noundef nonnull @.str) #24
  unreachable

30:                                               ; preds = %strbuf_avail.exit.thread.i
  store ptr null, ptr %8, align 8, !tbaa !12
  br label %.thread8.i

.thread8.i:                                       ; preds = %30, %.thread.i
  %31 = add nuw i64 %26, 2
  %32 = icmp ugt i64 %31, %25
  br i1 %32, label %33, label %strbuf_addch.exit

33:                                               ; preds = %.thread8.i
  %34 = mul i64 %25, 3
  %35 = add i64 %34, 48
  %36 = lshr i64 %35, 1
  %..i.i = tail call i64 @llvm.umax.i64(i64 %36, i64 %31)
  store i64 %..i.i, ptr %0, align 8, !tbaa !15
  %37 = load ptr, ptr %8, align 8, !tbaa !12
  %38 = tail call ptr @xrealloc(ptr noundef %37, i64 noundef %..i.i) #25
  store ptr %38, ptr %8, align 8, !tbaa !12
  br i1 %.not.i.i, label %39, label %strbuf_addch.exit

39:                                               ; preds = %33
  store i8 0, ptr %38, align 1, !tbaa !4
  br label %strbuf_addch.exit

strbuf_addch.exit:                                ; preds = %strbuf_avail.exit.i, %.thread8.i, %33, %39
  %40 = load ptr, ptr %8, align 8, !tbaa !12
  %41 = load i64, ptr %7, align 8, !tbaa !16
  %42 = add i64 %41, 1
  store i64 %42, ptr %7, align 8, !tbaa !16
  %43 = getelementptr inbounds nuw i8, ptr %40, i64 %41
  store i8 %11, ptr %43, align 1, !tbaa !4
  %44 = load ptr, ptr %8, align 8, !tbaa !12
  %45 = load i64, ptr %7, align 8, !tbaa !16
  %46 = getelementptr inbounds nuw i8, ptr %44, i64 %45
  store i8 0, ptr %46, align 1, !tbaa !4
  br label %47

47:                                               ; preds = %strbuf_addch.exit, %23
  %48 = add nuw i64 %.026, 1
  %exitcond.not = icmp eq i64 %48, %4
  br i1 %exitcond.not, label %._crit_edge, label %9, !llvm.loop !38

._crit_edge:                                      ; preds = %47, %3
  ret void
}